#include <math.h>
#include <stdio.h>
#include <stdlib.h>
#include <string.h>

int main()
{
int x,y,z,a;
scanf("%d %d %d",&x,&y,&z,&a);

	printf("321\n54321\n12211\n98997\n");
           return 0;

}
